target datalayout = "e-m:e-p270:32:32-p271:32:32-p272:64:64-i64:64-i128:128-f80:128-n8:16:32:64-S128"
target triple = "x86_64-pc-linux-gnu"

%struct.AVFilterPad = type { ptr, i32, i32, %union.anon, ptr, ptr, ptr }
%union.anon = type { ptr }
%struct.AVFilterContext = type { ptr, ptr, ptr, ptr, ptr, i32, ptr, ptr, i32, ptr, ptr, i32, i32, ptr, ptr, ptr, ptr, i32, ptr, i32, i32 }
%struct.BlendContext = type { ptr, %struct.FFFrameSync, i32, i32, i32, ptr, i32, double, i32, [4 x %struct.FilterParams], i32, ptr, i32 }
%struct.FFFrameSync = type { ptr, ptr, i32, %struct.AVRational, i64, ptr, ptr, i32, i32, i8, i8, ptr, i32, i32, i32, i32 }
%struct.AVRational = type { i32, i32 }
%struct.FilterParams = type { i32, double, ptr, ptr, ptr }
%struct.AVFilterLink = type { ptr, ptr, ptr, ptr, i32, i32, i32, i32, %struct.AVRational, i32, i32, i32, %struct.AVChannelLayout, %struct.AVRational, ptr, i32, %struct.AVFilterFormatsConfig, %struct.AVFilterFormatsConfig }
%struct.AVChannelLayout = type { i32, i32, %union.anon.1, ptr }
%union.anon.1 = type { i64 }
%struct.AVFilterFormatsConfig = type { ptr, ptr, ptr, ptr, ptr }
%struct.FilterLink = type { %struct.AVFilterLink, ptr, i64, i64, i32, i32, i64, i64, i64, i64, %struct.AVRational, ptr }
%struct.AVPixFmtDescriptor = type { ptr, i8, i8, i8, i64, [4 x %struct.AVComponentDescriptor], ptr }
%struct.AVComponentDescriptor = type { i32, i32, i32, i32, i32 }

@.str.7 = private unnamed_addr constant [121 x i8] c"First input link %s parameters (size %dx%d) do not match the corresponding second input link %s parameters (size %dx%d)\0A\00", align 1

; Function Attrs: inlinehint nounwind uwtable
define internal ptr @ff_filter_link(ptr noundef %0) #3 {
  %2 = alloca ptr, align 8
  store ptr %0, ptr %2, align 8, !tbaa !47
  %3 = load ptr, ptr %2, align 8, !tbaa !47
  ret ptr %3
}

; Function Attrs: nounwind uwtable
define internal i32 @config_output(ptr noundef %0) #0 {
  %2 = alloca i32, align 4
  %3 = alloca ptr, align 8
  %4 = alloca ptr, align 8
  %5 = alloca ptr, align 8
  %6 = alloca ptr, align 8
  %7 = alloca ptr, align 8
  %8 = alloca ptr, align 8
  %9 = alloca ptr, align 8
  %10 = alloca i32, align 4
  %11 = alloca ptr, align 8
  %12 = alloca i32, align 4
  store ptr %0, ptr %3, align 8, !tbaa !47
  call void @llvm.lifetime.start.p0(i64 8, ptr %4) #12
  %13 = load ptr, ptr %3, align 8, !tbaa !47
  %14 = call ptr @ff_filter_link(ptr noundef %13)
  store ptr %14, ptr %4, align 8, !tbaa !49
  call void @llvm.lifetime.start.p0(i64 8, ptr %5) #12
  %15 = load ptr, ptr %3, align 8, !tbaa !47
  %16 = getelementptr inbounds nuw %struct.AVFilterLink, ptr %15, i32 0, i32 0
  %17 = load ptr, ptr %16, align 8, !tbaa !51
  store ptr %17, ptr %5, align 8, !tbaa !4
  call void @llvm.lifetime.start.p0(i64 8, ptr %6) #12
  %18 = load ptr, ptr %5, align 8, !tbaa !4
  %19 = getelementptr inbounds nuw %struct.AVFilterContext, ptr %18, i32 0, i32 4
  %20 = load ptr, ptr %19, align 8, !tbaa !58
  %21 = getelementptr inbounds ptr, ptr %20, i64 0
  %22 = load ptr, ptr %21, align 8, !tbaa !47
  store ptr %22, ptr %6, align 8, !tbaa !47
  call void @llvm.lifetime.start.p0(i64 8, ptr %7) #12
  %23 = load ptr, ptr %6, align 8, !tbaa !47
  %24 = call ptr @ff_filter_link(ptr noundef %23)
  store ptr %24, ptr %7, align 8, !tbaa !49
  call void @llvm.lifetime.start.p0(i64 8, ptr %8) #12
  %25 = load ptr, ptr %5, align 8, !tbaa !4
  %26 = getelementptr inbounds nuw %struct.AVFilterContext, ptr %25, i32 0, i32 9
  %27 = load ptr, ptr %26, align 8, !tbaa !9
  store ptr %27, ptr %8, align 8, !tbaa !22
  call void @llvm.lifetime.start.p0(i64 8, ptr %9) #12
  %28 = load ptr, ptr %6, align 8, !tbaa !47
  %29 = getelementptr inbounds nuw %struct.AVFilterLink, ptr %28, i32 0, i32 5
  %30 = load i32, ptr %29, align 4, !tbaa !59
  %31 = call ptr @av_pix_fmt_desc_get(i32 noundef %30)
  store ptr %31, ptr %9, align 8, !tbaa !60
  call void @llvm.lifetime.start.p0(i64 4, ptr %10) #12
  %32 = load ptr, ptr %8, align 8, !tbaa !22
  %33 = getelementptr inbounds nuw %struct.BlendContext, ptr %32, i32 0, i32 10
  %34 = load i32, ptr %33, align 8, !tbaa !27
  %35 = icmp ne i32 %34, 0
  br i1 %35, label %87, label %36

36:                                               ; preds = %1
  call void @llvm.lifetime.start.p0(i64 8, ptr %11) #12
  %37 = load ptr, ptr %5, align 8, !tbaa !4
  %38 = getelementptr inbounds nuw %struct.AVFilterContext, ptr %37, i32 0, i32 4
  %39 = load ptr, ptr %38, align 8, !tbaa !58
  %40 = getelementptr inbounds ptr, ptr %39, i64 1
  %41 = load ptr, ptr %40, align 8, !tbaa !47
  store ptr %41, ptr %11, align 8, !tbaa !47
  %42 = load ptr, ptr %6, align 8, !tbaa !47
  %43 = getelementptr inbounds nuw %struct.AVFilterLink, ptr %42, i32 0, i32 6
  %44 = load i32, ptr %43, align 8, !tbaa !62
  %45 = load ptr, ptr %11, align 8, !tbaa !47
  %46 = getelementptr inbounds nuw %struct.AVFilterLink, ptr %45, i32 0, i32 6
  %47 = load i32, ptr %46, align 8, !tbaa !62
  %48 = icmp ne i32 %44, %47
  br i1 %48, label %57, label %49

49:                                               ; preds = %36
  %50 = load ptr, ptr %6, align 8, !tbaa !47
  %51 = getelementptr inbounds nuw %struct.AVFilterLink, ptr %50, i32 0, i32 7
  %52 = load i32, ptr %51, align 4, !tbaa !63
  %53 = load ptr, ptr %11, align 8, !tbaa !47
  %54 = getelementptr inbounds nuw %struct.AVFilterLink, ptr %53, i32 0, i32 7
  %55 = load i32, ptr %54, align 4, !tbaa !63
  %56 = icmp ne i32 %52, %55
  br i1 %56, label %57, label %83

57:                                               ; preds = %49, %36
  %58 = load ptr, ptr %5, align 8, !tbaa !4
  %59 = load ptr, ptr %5, align 8, !tbaa !4
  %60 = getelementptr inbounds nuw %struct.AVFilterContext, ptr %59, i32 0, i32 3
  %61 = load ptr, ptr %60, align 8, !tbaa !64
  %62 = getelementptr inbounds %struct.AVFilterPad, ptr %61, i64 0
  %63 = getelementptr inbounds nuw %struct.AVFilterPad, ptr %62, i32 0, i32 0
  %64 = load ptr, ptr %63, align 8, !tbaa !65
  %65 = load ptr, ptr %6, align 8, !tbaa !47
  %66 = getelementptr inbounds nuw %struct.AVFilterLink, ptr %65, i32 0, i32 6
  %67 = load i32, ptr %66, align 8, !tbaa !62
  %68 = load ptr, ptr %6, align 8, !tbaa !47
  %69 = getelementptr inbounds nuw %struct.AVFilterLink, ptr %68, i32 0, i32 7
  %70 = load i32, ptr %69, align 4, !tbaa !63
  %71 = load ptr, ptr %5, align 8, !tbaa !4
  %72 = getelementptr inbounds nuw %struct.AVFilterContext, ptr %71, i32 0, i32 3
  %73 = load ptr, ptr %72, align 8, !tbaa !64
  %74 = getelementptr inbounds %struct.AVFilterPad, ptr %73, i64 1
  %75 = getelementptr inbounds nuw %struct.AVFilterPad, ptr %74, i32 0, i32 0
  %76 = load ptr, ptr %75, align 8, !tbaa !65
  %77 = load ptr, ptr %11, align 8, !tbaa !47
  %78 = getelementptr inbounds nuw %struct.AVFilterLink, ptr %77, i32 0, i32 6
  %79 = load i32, ptr %78, align 8, !tbaa !62
  %80 = load ptr, ptr %11, align 8, !tbaa !47
  %81 = getelementptr inbounds nuw %struct.AVFilterLink, ptr %80, i32 0, i32 7
  %82 = load i32, ptr %81, align 4, !tbaa !63
  call void (ptr, i32, ptr, ...) @av_log(ptr noundef %58, i32 noundef 16, ptr noundef @.str.7, ptr noundef %64, i32 noundef %67, i32 noundef %70, ptr noundef %76, i32 noundef %79, i32 noundef %82)
  store i32 -22, ptr %2, align 4
  store i32 1, ptr %12, align 4
  br label %84

83:                                               ; preds = %49
  store i32 0, ptr %12, align 4
  br label %84

84:                                               ; preds = %83, %57
  call void @llvm.lifetime.end.p0(i64 8, ptr %11) #12
  %85 = load i32, ptr %12, align 4
  switch i32 %85, label %171 [
    i32 0, label %86
  ]

86:                                               ; preds = %84
  br label %87

87:                                               ; preds = %86, %1
  %88 = load ptr, ptr %6, align 8, !tbaa !47
  %89 = getelementptr inbounds nuw %struct.AVFilterLink, ptr %88, i32 0, i32 6
  %90 = load i32, ptr %89, align 8, !tbaa !62
  %91 = load ptr, ptr %3, align 8, !tbaa !47
  %92 = getelementptr inbounds nuw %struct.AVFilterLink, ptr %91, i32 0, i32 6
  store i32 %90, ptr %92, align 8, !tbaa !62
  %93 = load ptr, ptr %6, align 8, !tbaa !47
  %94 = getelementptr inbounds nuw %struct.AVFilterLink, ptr %93, i32 0, i32 7
  %95 = load i32, ptr %94, align 4, !tbaa !63
  %96 = load ptr, ptr %3, align 8, !tbaa !47
  %97 = getelementptr inbounds nuw %struct.AVFilterLink, ptr %96, i32 0, i32 7
  store i32 %95, ptr %97, align 4, !tbaa !63
  %98 = load ptr, ptr %3, align 8, !tbaa !47
  %99 = getelementptr inbounds nuw %struct.AVFilterLink, ptr %98, i32 0, i32 13
  %100 = load ptr, ptr %6, align 8, !tbaa !47
  %101 = getelementptr inbounds nuw %struct.AVFilterLink, ptr %100, i32 0, i32 13
  call void @llvm.memcpy.p0.p0.i64(ptr align 8 %99, ptr align 8 %101, i64 8, i1 false), !tbaa.struct !67
  %102 = load ptr, ptr %3, align 8, !tbaa !47
  %103 = getelementptr inbounds nuw %struct.AVFilterLink, ptr %102, i32 0, i32 8
  %104 = load ptr, ptr %6, align 8, !tbaa !47
  %105 = getelementptr inbounds nuw %struct.AVFilterLink, ptr %104, i32 0, i32 8
  call void @llvm.memcpy.p0.p0.i64(ptr align 8 %103, ptr align 8 %105, i64 8, i1 false), !tbaa.struct !67
  %106 = load ptr, ptr %4, align 8, !tbaa !49
  %107 = getelementptr inbounds nuw %struct.FilterLink, ptr %106, i32 0, i32 10
  %108 = load ptr, ptr %7, align 8, !tbaa !49
  %109 = getelementptr inbounds nuw %struct.FilterLink, ptr %108, i32 0, i32 10
  call void @llvm.memcpy.p0.p0.i64(ptr align 8 %107, ptr align 8 %109, i64 8, i1 false), !tbaa.struct !67
  %110 = load ptr, ptr %9, align 8, !tbaa !60
  %111 = getelementptr inbounds nuw %struct.AVPixFmtDescriptor, ptr %110, i32 0, i32 2
  %112 = load i8, ptr %111, align 1, !tbaa !68
  %113 = zext i8 %112 to i32
  %114 = load ptr, ptr %8, align 8, !tbaa !22
  %115 = getelementptr inbounds nuw %struct.BlendContext, ptr %114, i32 0, i32 2
  store i32 %113, ptr %115, align 8, !tbaa !70
  %116 = load ptr, ptr %9, align 8, !tbaa !60
  %117 = getelementptr inbounds nuw %struct.AVPixFmtDescriptor, ptr %116, i32 0, i32 3
  %118 = load i8, ptr %117, align 2, !tbaa !71
  %119 = zext i8 %118 to i32
  %120 = load ptr, ptr %8, align 8, !tbaa !22
  %121 = getelementptr inbounds nuw %struct.BlendContext, ptr %120, i32 0, i32 3
  store i32 %119, ptr %121, align 4, !tbaa !72
  %122 = load ptr, ptr %9, align 8, !tbaa !60
  %123 = getelementptr inbounds nuw %struct.AVPixFmtDescriptor, ptr %122, i32 0, i32 5
  %124 = getelementptr inbounds [4 x %struct.AVComponentDescriptor], ptr %123, i64 0, i64 0
  %125 = getelementptr inbounds nuw %struct.AVComponentDescriptor, ptr %124, i32 0, i32 4
  %126 = load i32, ptr %125, align 8, !tbaa !73
  %127 = load ptr, ptr %8, align 8, !tbaa !22
  %128 = getelementptr inbounds nuw %struct.BlendContext, ptr %127, i32 0, i32 8
  store i32 %126, ptr %128, align 8, !tbaa !75
  %129 = load ptr, ptr %6, align 8, !tbaa !47
  %130 = getelementptr inbounds nuw %struct.AVFilterLink, ptr %129, i32 0, i32 5
  %131 = load i32, ptr %130, align 4, !tbaa !59
  %132 = call i32 @av_pix_fmt_count_planes(i32 noundef %131)
  %133 = load ptr, ptr %8, align 8, !tbaa !22
  %134 = getelementptr inbounds nuw %struct.BlendContext, ptr %133, i32 0, i32 4
  store i32 %132, ptr %134, align 8, !tbaa !76
  %135 = load ptr, ptr %8, align 8, !tbaa !22
  %136 = getelementptr inbounds nuw %struct.BlendContext, ptr %135, i32 0, i32 10
  %137 = load i32, ptr %136, align 8, !tbaa !27
  %138 = icmp ne i32 %137, 0
  br i1 %138, label %148, label %139

139:                                              ; preds = %87
  %140 = load ptr, ptr %8, align 8, !tbaa !22
  %141 = getelementptr inbounds nuw %struct.BlendContext, ptr %140, i32 0, i32 1
  %142 = load ptr, ptr %5, align 8, !tbaa !4
  %143 = call i32 @ff_framesync_init_dualinput(ptr noundef %141, ptr noundef %142)
  store i32 %143, ptr %10, align 4, !tbaa !37
  %144 = icmp slt i32 %143, 0
  br i1 %144, label %145, label %147

145:                                              ; preds = %139
  %146 = load i32, ptr %10, align 4, !tbaa !37
  store i32 %146, ptr %2, align 4
  store i32 1, ptr %12, align 4
  br label %171

147:                                              ; preds = %139
  br label %148

148:                                              ; preds = %147, %87
  %149 = load ptr, ptr %5, align 8, !tbaa !4
  %150 = call i32 @config_params(ptr noundef %149)
  store i32 %150, ptr %10, align 4, !tbaa !37
  %151 = load i32, ptr %10, align 4, !tbaa !37
  %152 = icmp slt i32 %151, 0
  br i1 %152, label %153, label %155

153:                                              ; preds = %148
  %154 = load i32, ptr %10, align 4, !tbaa !37
  store i32 %154, ptr %2, align 4
  store i32 1, ptr %12, align 4
  br label %171

155:                                              ; preds = %148
  %156 = load ptr, ptr %8, align 8, !tbaa !22
  %157 = getelementptr inbounds nuw %struct.BlendContext, ptr %156, i32 0, i32 10
  %158 = load i32, ptr %157, align 8, !tbaa !27
  %159 = icmp ne i32 %158, 0
  br i1 %159, label %160, label %161

160:                                              ; preds = %155
  store i32 0, ptr %2, align 4
  store i32 1, ptr %12, align 4
  br label %171

161:                                              ; preds = %155
  %162 = load ptr, ptr %8, align 8, !tbaa !22
  %163 = getelementptr inbounds nuw %struct.BlendContext, ptr %162, i32 0, i32 1
  %164 = call i32 @ff_framesync_configure(ptr noundef %163)
  store i32 %164, ptr %10, align 4, !tbaa !37
  %165 = load ptr, ptr %3, align 8, !tbaa !47
  %166 = getelementptr inbounds nuw %struct.AVFilterLink, ptr %165, i32 0, i32 13
  %167 = load ptr, ptr %8, align 8, !tbaa !22
  %168 = getelementptr inbounds nuw %struct.BlendContext, ptr %167, i32 0, i32 1
  %169 = getelementptr inbounds nuw %struct.FFFrameSync, ptr %168, i32 0, i32 3
  call void @llvm.memcpy.p0.p0.i64(ptr align 8 %166, ptr align 4 %169, i64 8, i1 false), !tbaa.struct !67
  %170 = load i32, ptr %10, align 4, !tbaa !37
  store i32 %170, ptr %2, align 4
  store i32 1, ptr %12, align 4
  br label %171

171:                                              ; preds = %161, %160, %153, %145, %84
  call void @llvm.lifetime.end.p0(i64 4, ptr %10) #12
  call void @llvm.lifetime.end.p0(i64 8, ptr %9) #12
  call void @llvm.lifetime.end.p0(i64 8, ptr %8) #12
  call void @llvm.lifetime.end.p0(i64 8, ptr %7) #12
  call void @llvm.lifetime.end.p0(i64 8, ptr %6) #12
  call void @llvm.lifetime.end.p0(i64 8, ptr %5) #12
  call void @llvm.lifetime.end.p0(i64 8, ptr %4) #12
  %172 = load i32, ptr %2, align 4
  ret i32 %172
}