; Function Attrs: nounwind uwtable
define internal i32 @config_output(ptr noundef captures(none) %0) #0 {
  %2 = load ptr, ptr %0, align 8, !tbaa !42
  %3 = getelementptr inbounds nuw i8, ptr %2, i64 32
  %4 = load ptr, ptr %3, align 8, !tbaa !49
  %5 = load ptr, ptr %4, align 8, !tbaa !50
  %6 = getelementptr inbounds nuw i8, ptr %2, i64 72
  %7 = load ptr, ptr %6, align 8, !tbaa !4
  %8 = getelementptr inbounds nuw i8, ptr %5, i64 36
  %9 = load i32, ptr %8, align 4, !tbaa !52
  %10 = tail call ptr @av_pix_fmt_desc_get(i32 noundef %9) #12
  %11 = getelementptr inbounds nuw i8, ptr %7, i64 312
  %12 = load i32, ptr %11, align 8, !tbaa !23
  %.not = icmp eq i32 %12, 0
  br i1 %.not, label %13, label %._crit_edge

._crit_edge:                                      ; preds = %1
  %.phi.trans.insert59 = getelementptr inbounds nuw i8, ptr %5, i64 40
  %.pre60 = load i32, ptr %.phi.trans.insert59, align 8, !tbaa !53
  %.phi.trans.insert61 = getelementptr inbounds nuw i8, ptr %5, i64 44
  %.pre62 = load i32, ptr %.phi.trans.insert61, align 4, !tbaa !54
  br label %30

13:                                               ; preds = %1
  %14 = load ptr, ptr %3, align 8, !tbaa !49
  %15 = getelementptr inbounds nuw i8, ptr %14, i64 8
  %16 = load ptr, ptr %15, align 8, !tbaa !50
  %17 = getelementptr inbounds nuw i8, ptr %5, i64 40
  %18 = load i32, ptr %17, align 8, !tbaa !53
  %19 = getelementptr inbounds nuw i8, ptr %16, i64 40
  %20 = load i32, ptr %19, align 8, !tbaa !53
  %.not53 = icmp eq i32 %18, %20
  %21 = getelementptr inbounds nuw i8, ptr %5, i64 44
  %22 = load i32, ptr %21, align 4, !tbaa !54
  %23 = getelementptr inbounds nuw i8, ptr %16, i64 44
  %24 = load i32, ptr %23, align 4, !tbaa !54
  %.not54 = icmp eq i32 %22, %24
  %or.cond = select i1 %.not53, i1 %.not54, i1 false
  br i1 %or.cond, label %30, label %.critedge

.critedge:                                        ; preds = %13
  %25 = getelementptr inbounds nuw i8, ptr %2, i64 24
  %26 = load ptr, ptr %25, align 8, !tbaa !55
  %27 = load ptr, ptr %26, align 8, !tbaa !56
  %28 = getelementptr inbounds nuw i8, ptr %26, i64 48
  %29 = load ptr, ptr %28, align 8, !tbaa !56
  tail call void (ptr, i32, ptr, ...) @av_log(ptr noundef nonnull %2, i32 noundef 16, ptr noundef nonnull @.str.7, ptr noundef %27, i32 noundef %18, i32 noundef %22, ptr noundef %29, i32 noundef %20, i32 noundef %24) #12
  br label %73

30:                                               ; preds = %13, %._crit_edge
  %31 = phi i32 [ %.pre62, %._crit_edge ], [ %22, %13 ]
  %32 = phi i32 [ %.pre60, %._crit_edge ], [ %18, %13 ]
  %33 = getelementptr inbounds nuw i8, ptr %0, i64 40
  store i32 %32, ptr %33, align 8, !tbaa !53
  %34 = getelementptr inbounds nuw i8, ptr %0, i64 44
  store i32 %31, ptr %34, align 4, !tbaa !54
  %35 = getelementptr inbounds nuw i8, ptr %0, i64 96
  %36 = getelementptr inbounds nuw i8, ptr %5, i64 96
  %37 = load i64, ptr %36, align 8
  store i64 %37, ptr %35, align 8
  %38 = getelementptr inbounds nuw i8, ptr %0, i64 48
  %39 = getelementptr inbounds nuw i8, ptr %5, i64 48
  %40 = load i64, ptr %39, align 8
  store i64 %40, ptr %38, align 8
  %41 = getelementptr inbounds nuw i8, ptr %0, i64 264
  %42 = getelementptr inbounds nuw i8, ptr %5, i64 264
  %43 = load i64, ptr %42, align 8
  store i64 %43, ptr %41, align 8
  %44 = getelementptr inbounds nuw i8, ptr %10, i64 9
  %45 = load i8, ptr %44, align 1, !tbaa !58
  %46 = zext i8 %45 to i32
  %47 = getelementptr inbounds nuw i8, ptr %7, i64 104
  store i32 %46, ptr %47, align 8, !tbaa !60
  %48 = getelementptr inbounds nuw i8, ptr %10, i64 10
  %49 = load i8, ptr %48, align 2, !tbaa !61
  %50 = zext i8 %49 to i32
  %51 = getelementptr inbounds nuw i8, ptr %7, i64 108
  store i32 %50, ptr %51, align 4, !tbaa !62
  %52 = getelementptr inbounds nuw i8, ptr %10, i64 40
  %53 = load i32, ptr %52, align 8, !tbaa !63
  %54 = getelementptr inbounds nuw i8, ptr %7, i64 144
  store i32 %53, ptr %54, align 8, !tbaa !65
  %55 = load i32, ptr %8, align 4, !tbaa !52
  %56 = tail call i32 @av_pix_fmt_count_planes(i32 noundef %55) #12
  %57 = getelementptr inbounds nuw i8, ptr %7, i64 112
  store i32 %56, ptr %57, align 8, !tbaa !66
  %58 = load i32, ptr %11, align 8, !tbaa !23
  %.not55 = icmp eq i32 %58, 0
  br i1 %.not55, label %59, label %63

59:                                               ; preds = %30
  %60 = getelementptr inbounds nuw i8, ptr %7, i64 8
  %61 = tail call i32 @ff_framesync_init_dualinput(ptr noundef nonnull %60, ptr noundef nonnull %2) #12
  %62 = icmp slt i32 %61, 0
  br i1 %62, label %73, label %63

63:                                               ; preds = %59, %30
  %64 = tail call fastcc i32 @config_params(ptr noundef nonnull %2)
  %65 = icmp slt i32 %64, 0
  br i1 %65, label %73, label %66

66:                                               ; preds = %63
  %67 = load i32, ptr %11, align 8, !tbaa !23
  %.not56 = icmp eq i32 %67, 0
  br i1 %.not56, label %68, label %73

68:                                               ; preds = %66
  %69 = getelementptr inbounds nuw i8, ptr %7, i64 8
  %70 = tail call i32 @ff_framesync_configure(ptr noundef nonnull %69) #12
  %71 = getelementptr inbounds nuw i8, ptr %7, i64 28
  %72 = load i64, ptr %71, align 4
  store i64 %72, ptr %35, align 8
  br label %73

73:                                               ; preds = %66, %63, %59, %.critedge, %68
  %.1 = phi i32 [ %70, %68 ], [ -22, %.critedge ], [ %61, %59 ], [ %64, %63 ], [ 0, %66 ]
  ret i32 %.1
}